; Function Attrs: mustprogress uwtable
define dso_local noundef ptr @_Z16find_block_by_idi(i32 noundef %0) local_unnamed_addr #3 {
  %2 = tail call noundef nonnull align 8 dereferenceable(24) ptr @_Z17get_all_functionsv()
  %3 = getelementptr inbounds i8, ptr %2, i64 8
  %4 = load ptr, ptr %3, align 8
  %5 = load ptr, ptr %2, align 8
  %.not21 = icmp eq ptr %4, %5
  br i1 %.not21, label %.loopexit16, label %.lr.ph20.preheader

.lr.ph20.preheader:                               ; preds = %1
  %6 = ptrtoint ptr %4 to i64
  %7 = ptrtoint ptr %5 to i64
  %8 = sub i64 %6, %7
  %9 = ashr exact i64 %8, 3
  %umax25 = tail call i64 @llvm.umax.i64(i64 %9, i64 1)
  br label %.lr.ph20

.lr.ph20:                                         ; preds = %.lr.ph20.preheader, %.loopexit
  %.01519 = phi i64 [ %30, %.loopexit ], [ 0, %.lr.ph20.preheader ]
  %10 = getelementptr inbounds ptr, ptr %5, i64 %.01519
  %11 = load ptr, ptr %10, align 8
  %12 = getelementptr inbounds i8, ptr %11, i64 267
  %13 = load i8, ptr %12, align 1
  %14 = and i8 %13, 1
  %.not = icmp eq i8 %14, 0
  br i1 %.not, label %.preheader, label %.loopexit

.preheader:                                       ; preds = %.lr.ph20
  %15 = getelementptr inbounds i8, ptr %11, i64 168
  %16 = getelementptr inbounds i8, ptr %11, i64 176
  %17 = load ptr, ptr %16, align 8
  %18 = load ptr, ptr %15, align 8
  %.not22 = icmp eq ptr %17, %18
  br i1 %.not22, label %.loopexit, label %.lr.ph.preheader

.lr.ph.preheader:                                 ; preds = %.preheader
  %19 = ptrtoint ptr %17 to i64
  %20 = ptrtoint ptr %18 to i64
  %21 = sub i64 %19, %20
  %22 = ashr exact i64 %21, 3
  %umax = tail call i64 @llvm.umax.i64(i64 %22, i64 1)
  br label %.lr.ph

23:                                               ; preds = %.lr.ph
  %24 = add nuw i64 %.01418, 1
  %exitcond.not = icmp eq i64 %24, %umax
  br i1 %exitcond.not, label %.loopexit, label %.lr.ph, !llvm.loop !5

.lr.ph:                                           ; preds = %.lr.ph.preheader, %23
  %.01418 = phi i64 [ %24, %23 ], [ 0, %.lr.ph.preheader ]
  %25 = getelementptr inbounds ptr, ptr %18, i64 %.01418
  %26 = load ptr, ptr %25, align 8
  %27 = getelementptr inbounds i8, ptr %26, i64 12
  %28 = load i32, ptr %27, align 4
  %29 = icmp eq i32 %28, %0
  br i1 %29, label %.loopexit16, label %23

.loopexit:                                        ; preds = %23, %.preheader, %.lr.ph20
  %30 = add nuw i64 %.01519, 1
  %exitcond26.not = icmp eq i64 %30, %umax25
  br i1 %exitcond26.not, label %.loopexit16, label %.lr.ph20, !llvm.loop !7

.loopexit16:                                      ; preds = %.loopexit, %.lr.ph, %1
  %.0 = phi ptr [ null, %1 ], [ %26, %.lr.ph ], [ null, %.loopexit ]
  ret ptr %.0
}